target datalayout = "e-m:e-p270:32:32-p271:32:32-p272:64:64-i64:64-i128:128-f80:128-n8:16:32:64-S128"
target triple = "x86_64-unknown-linux-gnu"

%"class.grpc_core::TraceFlag" = type <{ ptr, ptr, %"struct.std::atomic", [7 x i8] }>
%"struct.std::atomic" = type { %"struct.std::__atomic_base" }
%"struct.std::__atomic_base" = type { i8 }
%struct.grpc_auth_property_iterator = type { ptr, i64, ptr }
%"class.grpc_core::RefCountedPtr.2" = type { ptr }
%"class.grpc_core::RefCounted.3" = type { %"class.grpc_core::RefCount" }
%"class.grpc_core::RefCount" = type { %"struct.std::atomic.0" }
%"struct.std::atomic.0" = type { %"struct.std::__atomic_base.1" }
%"struct.std::__atomic_base.1" = type { i64 }
%struct.grpc_auth_context = type { %"class.grpc_core::RefCounted.3", %"class.grpc_core::RefCountedPtr.2", %struct.grpc_auth_property_array, ptr, %"class.std::unique_ptr" }
%struct.grpc_auth_property_array = type { ptr, i64, i64 }
%"class.std::unique_ptr" = type { %"struct.std::__uniq_ptr_data" }
%"struct.std::__uniq_ptr_data" = type { %"class.std::__uniq_ptr_impl" }
%"class.std::__uniq_ptr_impl" = type { %"class.std::tuple" }
%"class.std::tuple" = type { %"struct.std::_Tuple_impl" }
%"struct.std::_Tuple_impl" = type { %"struct.std::_Head_base.5" }
%"struct.std::_Head_base.5" = type { ptr }
%struct.grpc_auth_property = type { ptr, ptr, i64 }

@grpc_api_trace = external global %"class.grpc_core::TraceFlag", align 8
@.str = private unnamed_addr constant [137 x i8] c"generated/home/dtcxzyw/WorkSpace/Projects/compilers/llvm-opt-benchmark/bench/grpc/grpc/src/core/lib/security/context/security_context.cc\00", align 1
@.str.16 = private unnamed_addr constant [40 x i8] c"grpc_auth_property_iterator_next(it=%p)\00", align 1
@.str.17 = private unnamed_addr constant [22 x i8] c"prop->name != nullptr\00", align 1

; Function Attrs: noreturn nounwind uwtable
define linkonce_odr hidden void @__clang_call_terminate(ptr noundef %0) #6 comdat {
  %2 = call ptr @__cxa_begin_catch(ptr %0) #3
  call void @_ZSt9terminatev() #15
  unreachable
}

; Function Attrs: mustprogress nounwind uwtable
define linkonce_odr noundef i32 @_ZStanSt12memory_orderSt23__memory_order_modifier(i32 noundef %__m, i32 noundef %__mod) #5 comdat {
entry:
  %__m.addr = alloca i32, align 4
  %__mod.addr = alloca i32, align 4
  store i32 %__m, ptr %__m.addr, align 4
  store i32 %__mod, ptr %__mod.addr, align 4
  %0 = load i32, ptr %__m.addr, align 4
  %1 = load i32, ptr %__mod.addr, align 4
  %and = and i32 %0, %1
  ret i32 %and
}

; Function Attrs: mustprogress nounwind uwtable
define linkonce_odr noundef ptr @_ZNK9grpc_core13RefCountedPtrI17grpc_auth_contextE3getEv(ptr noundef nonnull align 8 dereferenceable(8) %this) #5 comdat align 2 {
entry:
  %this.addr = alloca ptr, align 8
  store ptr %this, ptr %this.addr, align 8
  %this1 = load ptr, ptr %this.addr, align 8
  %value_ = getelementptr inbounds %"class.grpc_core::RefCountedPtr.2", ptr %this1, i32 0, i32 0
  %0 = load ptr, ptr %value_, align 8
  ret ptr %0
}

; Function Attrs: mustprogress nounwind uwtable
define linkonce_odr noundef zeroext i1 @_ZNKSt6atomicIbE4loadESt12memory_order(ptr noundef nonnull align 1 dereferenceable(1) %this, i32 noundef %__m) #5 comdat align 2 personality ptr @__gxx_personality_v0 {
entry:
  %this.addr.i = alloca ptr, align 8
  %__m.addr.i = alloca i32, align 4
  %__b.i = alloca i32, align 4
  %atomic-temp.i = alloca i8, align 1
  %this.addr = alloca ptr, align 8
  %__m.addr = alloca i32, align 4
  store ptr %this, ptr %this.addr, align 8
  store i32 %__m, ptr %__m.addr, align 4
  %this1 = load ptr, ptr %this.addr, align 8
  %_M_base = getelementptr inbounds %"struct.std::atomic", ptr %this1, i32 0, i32 0
  %0 = load i32, ptr %__m.addr, align 4
  store ptr %_M_base, ptr %this.addr.i, align 8
  store i32 %0, ptr %__m.addr.i, align 4
  %this1.i = load ptr, ptr %this.addr.i, align 8
  %1 = load i32, ptr %__m.addr.i, align 4
  %call.i = invoke noundef i32 @_ZStanSt12memory_orderSt23__memory_order_modifier(i32 noundef %1, i32 noundef 65535)
          to label %invoke.cont.i unwind label %terminate.lpad.i

invoke.cont.i:                                    ; preds = %entry
  store i32 %call.i, ptr %__b.i, align 4
  %2 = load i32, ptr %__m.addr.i, align 4
  switch i32 %2, label %monotonic.i [
    i32 1, label %acquire.i
    i32 2, label %acquire.i
    i32 5, label %seqcst.i
  ]

monotonic.i:                                      ; preds = %invoke.cont.i
  %3 = load atomic i8, ptr %this1.i monotonic, align 1
  store i8 %3, ptr %atomic-temp.i, align 1
  br label %_ZNKSt13__atomic_baseIbE4loadESt12memory_order.exit

acquire.i:                                        ; preds = %invoke.cont.i, %invoke.cont.i
  %4 = load atomic i8, ptr %this1.i acquire, align 1
  store i8 %4, ptr %atomic-temp.i, align 1
  br label %_ZNKSt13__atomic_baseIbE4loadESt12memory_order.exit

seqcst.i:                                         ; preds = %invoke.cont.i
  %5 = load atomic i8, ptr %this1.i seq_cst, align 1
  store i8 %5, ptr %atomic-temp.i, align 1
  br label %_ZNKSt13__atomic_baseIbE4loadESt12memory_order.exit

terminate.lpad.i:                                 ; preds = %entry
  %6 = landingpad { ptr, i32 }
          catch ptr null
  %7 = extractvalue { ptr, i32 } %6, 0
  call void @__clang_call_terminate(ptr %7) #15
  unreachable

_ZNKSt13__atomic_baseIbE4loadESt12memory_order.exit: ; preds = %seqcst.i, %acquire.i, %monotonic.i
  %8 = load i8, ptr %atomic-temp.i, align 1
  %tobool.i = trunc i8 %8 to i1
  ret i1 %tobool.i
}

; Function Attrs: mustprogress uwtable
define linkonce_odr noundef ptr @_ZNK17grpc_auth_context7chainedEv(ptr noundef nonnull align 8 dereferenceable(56) %this) #4 comdat align 2 {
entry:
  %this.addr = alloca ptr, align 8
  store ptr %this, ptr %this.addr, align 8
  %this1 = load ptr, ptr %this.addr, align 8
  %chained_ = getelementptr inbounds %struct.grpc_auth_context, ptr %this1, i32 0, i32 1
  %call = call noundef ptr @_ZNK9grpc_core13RefCountedPtrI17grpc_auth_contextE3getEv(ptr noundef nonnull align 8 dereferenceable(8) %chained_)
  ret ptr %call
}

; Function Attrs: mustprogress nounwind uwtable
define linkonce_odr noundef nonnull align 8 dereferenceable(24) ptr @_ZNK17grpc_auth_context10propertiesEv(ptr noundef nonnull align 8 dereferenceable(56) %this) #5 comdat align 2 {
entry:
  %this.addr = alloca ptr, align 8
  store ptr %this, ptr %this.addr, align 8
  %this1 = load ptr, ptr %this.addr, align 8
  %properties_ = getelementptr inbounds %struct.grpc_auth_context, ptr %this1, i32 0, i32 2
  ret ptr %properties_
}

; Function Attrs: mustprogress nounwind uwtable
define linkonce_odr noundef zeroext i1 @_ZN9grpc_core9TraceFlag7enabledEv(ptr noundef nonnull align 8 dereferenceable(17) %this) #5 comdat align 2 {
entry:
  %this.addr = alloca ptr, align 8
  store ptr %this, ptr %this.addr, align 8
  %this1 = load ptr, ptr %this.addr, align 8
  %value_ = getelementptr inbounds %"class.grpc_core::TraceFlag", ptr %this1, i32 0, i32 2
  %call = call noundef zeroext i1 @_ZNKSt6atomicIbE4loadESt12memory_order(ptr noundef nonnull align 1 dereferenceable(1) %value_, i32 noundef 0) #3
  ret i1 %call
}

; Function Attrs: mustprogress uwtable
define ptr @grpc_auth_property_iterator_next(ptr noundef %it) #4 {
entry:
  %retval = alloca ptr, align 8
  %it.addr = alloca ptr, align 8
  %prop = alloca ptr, align 8
  store ptr %it, ptr %it.addr, align 8
  %call = call noundef zeroext i1 @_ZN9grpc_core9TraceFlag7enabledEv(ptr noundef nonnull align 8 dereferenceable(17) @grpc_api_trace)
  br i1 %call, label %if.then, label %if.end

if.then:                                          ; preds = %entry
  %0 = load ptr, ptr %it.addr, align 8
  call void (ptr, i32, i32, ptr, ...) @gpr_log(ptr noundef @.str, i32 noundef 183, i32 noundef 1, ptr noundef @.str.16, ptr noundef %0)
  br label %if.end

if.end:                                           ; preds = %if.then, %entry
  %1 = load ptr, ptr %it.addr, align 8
  %cmp = icmp eq ptr %1, null
  br i1 %cmp, label %if.then2, label %lor.lhs.false

lor.lhs.false:                                    ; preds = %if.end
  %2 = load ptr, ptr %it.addr, align 8
  %ctx = getelementptr inbounds %struct.grpc_auth_property_iterator, ptr %2, i32 0, i32 0
  %3 = load ptr, ptr %ctx, align 8
  %cmp1 = icmp eq ptr %3, null
  br i1 %cmp1, label %if.then2, label %if.end3

if.then2:                                         ; preds = %lor.lhs.false, %if.end
  store ptr null, ptr %retval, align 8
  br label %return

if.end3:                                          ; preds = %lor.lhs.false
  br label %while.cond

while.cond:                                       ; preds = %if.end11, %if.end3
  %4 = load ptr, ptr %it.addr, align 8
  %index = getelementptr inbounds %struct.grpc_auth_property_iterator, ptr %4, i32 0, i32 1
  %5 = load i64, ptr %index, align 8
  %6 = load ptr, ptr %it.addr, align 8
  %ctx4 = getelementptr inbounds %struct.grpc_auth_property_iterator, ptr %6, i32 0, i32 0
  %7 = load ptr, ptr %ctx4, align 8
  %call5 = call noundef nonnull align 8 dereferenceable(24) ptr @_ZNK17grpc_auth_context10propertiesEv(ptr noundef nonnull align 8 dereferenceable(56) %7)
  %count = getelementptr inbounds %struct.grpc_auth_property_array, ptr %call5, i32 0, i32 1
  %8 = load i64, ptr %count, align 8
  %cmp6 = icmp eq i64 %5, %8
  br i1 %cmp6, label %while.body, label %while.end

while.body:                                       ; preds = %while.cond
  %9 = load ptr, ptr %it.addr, align 8
  %ctx7 = getelementptr inbounds %struct.grpc_auth_property_iterator, ptr %9, i32 0, i32 0
  %10 = load ptr, ptr %ctx7, align 8
  %call8 = call noundef ptr @_ZNK17grpc_auth_context7chainedEv(ptr noundef nonnull align 8 dereferenceable(56) %10)
  %cmp9 = icmp eq ptr %call8, null
  br i1 %cmp9, label %if.then10, label %if.end11

if.then10:                                        ; preds = %while.body
  store ptr null, ptr %retval, align 8
  br label %return

if.end11:                                         ; preds = %while.body
  %11 = load ptr, ptr %it.addr, align 8
  %ctx12 = getelementptr inbounds %struct.grpc_auth_property_iterator, ptr %11, i32 0, i32 0
  %12 = load ptr, ptr %ctx12, align 8
  %call13 = call noundef ptr @_ZNK17grpc_auth_context7chainedEv(ptr noundef nonnull align 8 dereferenceable(56) %12)
  %13 = load ptr, ptr %it.addr, align 8
  %ctx14 = getelementptr inbounds %struct.grpc_auth_property_iterator, ptr %13, i32 0, i32 0
  store ptr %call13, ptr %ctx14, align 8
  %14 = load ptr, ptr %it.addr, align 8
  %index15 = getelementptr inbounds %struct.grpc_auth_property_iterator, ptr %14, i32 0, i32 1
  store i64 0, ptr %index15, align 8
  br label %while.cond, !llvm.loop !4

while.end:                                        ; preds = %while.cond
  %15 = load ptr, ptr %it.addr, align 8
  %name = getelementptr inbounds %struct.grpc_auth_property_iterator, ptr %15, i32 0, i32 2
  %16 = load ptr, ptr %name, align 8
  %cmp16 = icmp eq ptr %16, null
  br i1 %cmp16, label %if.then17, label %if.else

if.then17:                                        ; preds = %while.end
  %17 = load ptr, ptr %it.addr, align 8
  %ctx18 = getelementptr inbounds %struct.grpc_auth_property_iterator, ptr %17, i32 0, i32 0
  %18 = load ptr, ptr %ctx18, align 8
  %call19 = call noundef nonnull align 8 dereferenceable(24) ptr @_ZNK17grpc_auth_context10propertiesEv(ptr noundef nonnull align 8 dereferenceable(56) %18)
  %array = getelementptr inbounds %struct.grpc_auth_property_array, ptr %call19, i32 0, i32 0
  %19 = load ptr, ptr %array, align 8
  %20 = load ptr, ptr %it.addr, align 8
  %index20 = getelementptr inbounds %struct.grpc_auth_property_iterator, ptr %20, i32 0, i32 1
  %21 = load i64, ptr %index20, align 8
  %inc = add i64 %21, 1
  store i64 %inc, ptr %index20, align 8
  %arrayidx = getelementptr inbounds %struct.grpc_auth_property, ptr %19, i64 %21
  store ptr %arrayidx, ptr %retval, align 8
  br label %return

if.else:                                          ; preds = %while.end
  br label %while.cond21

while.cond21:                                     ; preds = %if.end43, %if.else
  %22 = load ptr, ptr %it.addr, align 8
  %index22 = getelementptr inbounds %struct.grpc_auth_property_iterator, ptr %22, i32 0, i32 1
  %23 = load i64, ptr %index22, align 8
  %24 = load ptr, ptr %it.addr, align 8
  %ctx23 = getelementptr inbounds %struct.grpc_auth_property_iterator, ptr %24, i32 0, i32 0
  %25 = load ptr, ptr %ctx23, align 8
  %call24 = call noundef nonnull align 8 dereferenceable(24) ptr @_ZNK17grpc_auth_context10propertiesEv(ptr noundef nonnull align 8 dereferenceable(56) %25)
  %count25 = getelementptr inbounds %struct.grpc_auth_property_array, ptr %call24, i32 0, i32 1
  %26 = load i64, ptr %count25, align 8
  %cmp26 = icmp ult i64 %23, %26
  br i1 %cmp26, label %while.body27, label %while.end44

while.body27:                                     ; preds = %while.cond21
  %27 = load ptr, ptr %it.addr, align 8
  %ctx28 = getelementptr inbounds %struct.grpc_auth_property_iterator, ptr %27, i32 0, i32 0
  %28 = load ptr, ptr %ctx28, align 8
  %call29 = call noundef nonnull align 8 dereferenceable(24) ptr @_ZNK17grpc_auth_context10propertiesEv(ptr noundef nonnull align 8 dereferenceable(56) %28)
  %array30 = getelementptr inbounds %struct.grpc_auth_property_array, ptr %call29, i32 0, i32 0
  %29 = load ptr, ptr %array30, align 8
  %30 = load ptr, ptr %it.addr, align 8
  %index31 = getelementptr inbounds %struct.grpc_auth_property_iterator, ptr %30, i32 0, i32 1
  %31 = load i64, ptr %index31, align 8
  %inc32 = add i64 %31, 1
  store i64 %inc32, ptr %index31, align 8
  %arrayidx33 = getelementptr inbounds %struct.grpc_auth_property, ptr %29, i64 %31
  store ptr %arrayidx33, ptr %prop, align 8
  br label %do.body

do.body:                                          ; preds = %while.body27
  %32 = load ptr, ptr %prop, align 8
  %name34 = getelementptr inbounds %struct.grpc_auth_property, ptr %32, i32 0, i32 0
  %33 = load ptr, ptr %name34, align 8
  %cmp35 = icmp ne ptr %33, null
  %lnot = xor i1 %cmp35, true
  br i1 %lnot, label %if.then36, label %if.end37

if.then36:                                        ; preds = %do.body
  call void @gpr_assertion_failed(ptr noundef @.str, i32 noundef 196, ptr noundef @.str.17) #16
  unreachable

if.end37:                                         ; preds = %do.body
  br label %do.end

do.end:                                           ; preds = %if.end37
  %34 = load ptr, ptr %it.addr, align 8
  %name38 = getelementptr inbounds %struct.grpc_auth_property_iterator, ptr %34, i32 0, i32 2
  %35 = load ptr, ptr %name38, align 8
  %36 = load ptr, ptr %prop, align 8
  %name39 = getelementptr inbounds %struct.grpc_auth_property, ptr %36, i32 0, i32 0
  %37 = load ptr, ptr %name39, align 8
  %call40 = call i32 @strcmp(ptr noundef %35, ptr noundef %37) #17
  %cmp41 = icmp eq i32 %call40, 0
  br i1 %cmp41, label %if.then42, label %if.end43

if.then42:                                        ; preds = %do.end
  %38 = load ptr, ptr %prop, align 8
  store ptr %38, ptr %retval, align 8
  br label %return

if.end43:                                         ; preds = %do.end
  br label %while.cond21, !llvm.loop !6

while.end44:                                      ; preds = %while.cond21
  %39 = load ptr, ptr %it.addr, align 8
  %call45 = call ptr @grpc_auth_property_iterator_next(ptr noundef %39)
  store ptr %call45, ptr %retval, align 8
  br label %return

return:                                           ; preds = %while.end44, %if.then42, %if.then17, %if.then10, %if.then2
  %40 = load ptr, ptr %retval, align 8
  ret ptr %40
}