; Function Attrs: mustprogress uwtable
define ptr @grpc_auth_property_iterator_next(ptr noundef %it) local_unnamed_addr #4 personality ptr @__gxx_personality_v0 {
entry:
  %cmp = icmp eq ptr %it, null
  %index = getelementptr inbounds i8, ptr %it, i64 8
  %name = getelementptr inbounds i8, ptr %it, i64 16
  br i1 %cmp, label %tailrecurse.us, label %tailrecurse

tailrecurse.us:                                   ; preds = %entry
  %0 = load atomic i8, ptr getelementptr inbounds (%"class.grpc_core::TraceFlag", ptr @grpc_api_trace, i64 0, i32 2, i32 0, i32 0) monotonic, align 8
  %1 = and i8 %0, 1
  %tobool.i.i.i.not.us = icmp eq i8 %1, 0
  br i1 %tobool.i.i.i.not.us, label %return, label %if.then.us

if.then.us:                                       ; preds = %tailrecurse.us
  tail call void (ptr, i32, i32, ptr, ...) @gpr_log(ptr noundef nonnull @.str, i32 noundef 183, i32 noundef 1, ptr noundef nonnull @.str.16, ptr noundef null)
  br label %return

tailrecurse:                                      ; preds = %while.cond21, %entry
  %2 = load atomic i8, ptr getelementptr inbounds (%"class.grpc_core::TraceFlag", ptr @grpc_api_trace, i64 0, i32 2, i32 0, i32 0) monotonic, align 8
  %3 = and i8 %2, 1
  %tobool.i.i.i.not = icmp eq i8 %3, 0
  br i1 %tobool.i.i.i.not, label %if.end, label %if.then

if.then:                                          ; preds = %tailrecurse
  tail call void (ptr, i32, i32, ptr, ...) @gpr_log(ptr noundef nonnull @.str, i32 noundef 183, i32 noundef 1, ptr noundef nonnull @.str.16, ptr noundef nonnull %it)
  br label %if.end

if.end:                                           ; preds = %if.then, %tailrecurse
  %4 = load ptr, ptr %it, align 8
  %cmp1 = icmp eq ptr %4, null
  br i1 %cmp1, label %return, label %while.cond.preheader

while.cond.preheader:                             ; preds = %if.end
  %index.promoted = load i64, ptr %index, align 8
  %count39 = getelementptr inbounds i8, ptr %4, i64 24
  %5 = load i64, ptr %count39, align 8
  %cmp640 = icmp eq i64 %index.promoted, %5
  br i1 %cmp640, label %while.body, label %while.end

while.body:                                       ; preds = %while.cond.preheader, %if.end11
  %6 = phi ptr [ %7, %if.end11 ], [ %4, %while.cond.preheader ]
  %chained_.i = getelementptr inbounds i8, ptr %6, i64 8
  %7 = load ptr, ptr %chained_.i, align 8
  %cmp9 = icmp eq ptr %7, null
  br i1 %cmp9, label %return, label %if.end11

if.end11:                                         ; preds = %while.body
  store ptr %7, ptr %it, align 8
  store i64 0, ptr %index, align 8
  %count = getelementptr inbounds i8, ptr %7, i64 24
  %8 = load i64, ptr %count, align 8
  %cmp6 = icmp eq i64 %8, 0
  br i1 %cmp6, label %while.body, label %while.end, !llvm.loop !17

while.end:                                        ; preds = %if.end11, %while.cond.preheader
  %.lcssa38 = phi ptr [ %4, %while.cond.preheader ], [ %7, %if.end11 ]
  %.lcssa = phi i64 [ %index.promoted, %while.cond.preheader ], [ 0, %if.end11 ]
  %properties_.i.le = getelementptr inbounds i8, ptr %.lcssa38, i64 16
  %count.le = getelementptr inbounds i8, ptr %.lcssa38, i64 24
  %9 = load ptr, ptr %name, align 8
  %cmp16 = icmp eq ptr %9, null
  br i1 %cmp16, label %if.then17, label %while.cond21

if.then17:                                        ; preds = %while.end
  %10 = load ptr, ptr %properties_.i.le, align 8
  %inc = add i64 %.lcssa, 1
  store i64 %inc, ptr %index, align 8
  %arrayidx = getelementptr inbounds %struct.grpc_auth_property, ptr %10, i64 %.lcssa
  br label %return

while.cond21:                                     ; preds = %while.end, %do.end
  %11 = phi i64 [ %inc32, %do.end ], [ %.lcssa, %while.end ]
  %12 = load i64, ptr %count.le, align 8
  %cmp26 = icmp ult i64 %11, %12
  br i1 %cmp26, label %while.body27, label %tailrecurse

while.body27:                                     ; preds = %while.cond21
  %13 = load ptr, ptr %properties_.i.le, align 8
  %inc32 = add nuw i64 %11, 1
  store i64 %inc32, ptr %index, align 8
  %arrayidx33 = getelementptr inbounds %struct.grpc_auth_property, ptr %13, i64 %11
  %14 = load ptr, ptr %arrayidx33, align 8
  %cmp35.not = icmp eq ptr %14, null
  br i1 %cmp35.not, label %if.then36, label %do.end

if.then36:                                        ; preds = %while.body27
  tail call void @gpr_assertion_failed(ptr noundef nonnull @.str, i32 noundef 196, ptr noundef nonnull @.str.17) #24
  unreachable

do.end:                                           ; preds = %while.body27
  %call40 = tail call i32 @strcmp(ptr noundef nonnull dereferenceable(1) %9, ptr noundef nonnull dereferenceable(1) %14) #25
  %cmp41 = icmp eq i32 %call40, 0
  br i1 %cmp41, label %return, label %while.cond21, !llvm.loop !19

return:                                           ; preds = %if.end, %while.body, %do.end, %tailrecurse.us, %if.then.us, %if.then17
  %retval.0 = phi ptr [ %arrayidx, %if.then17 ], [ null, %if.then.us ], [ null, %tailrecurse.us ], [ %arrayidx33, %do.end ], [ null, %while.body ], [ null, %if.end ]
  ret ptr %retval.0
}